; Function Attrs: nounwind uwtable
define range(i32 -1, 1) i32 @H5FO_create(ptr noundef readonly captures(none) %0) local_unnamed_addr #0 {
  %2 = tail call ptr @H5SL_create(i32 noundef 1, ptr noundef null) #2
  %3 = getelementptr inbounds nuw i8, ptr %0, i64 16
  %4 = load ptr, ptr %3, align 8, !tbaa !3
  %5 = getelementptr inbounds nuw i8, ptr %4, i64 1464
  store ptr %2, ptr %5, align 8, !tbaa !15
  %6 = icmp eq ptr %2, null
  br i1 %6, label %7, label %11

7:                                                ; preds = %1
  %8 = load i64, ptr @H5E_FILE_g, align 8, !tbaa !36
  %9 = load i64, ptr @H5E_CANTINIT_g, align 8, !tbaa !36
  %10 = tail call i32 (ptr, ptr, i32, i64, i64, ptr, ...) @H5E_printf_stack(ptr noundef nonnull @.str, ptr noundef nonnull @__func__.H5FO_create, i32 noundef 83, i64 noundef %8, i64 noundef %9, ptr noundef nonnull @.str.1) #2
  br label %11

11:                                               ; preds = %1, %7
  %.0 = phi i32 [ -1, %7 ], [ 0, %1 ]
  ret i32 %.0
}